; Function Attrs: mustprogress uwtable
define hidden void @_ZN4cvc58internal6theory11quantifiers5Cegis11getTermListERKSt6vectorINS0_12NodeTemplateILb1EEESaIS6_EERS8_(ptr nocapture nonnull readnone align 8 %this, ptr nocapture noundef nonnull readonly align 8 dereferenceable(24) %candidates, ptr noundef nonnull align 8 dereferenceable(24) %enums) unnamed_addr #3 align 2 {
entry:
  %_M_finish.i = getelementptr inbounds i8, ptr %enums, i64 8
  %0 = load ptr, ptr %_M_finish.i, align 8
  %1 = load ptr, ptr %candidates, align 8
  %_M_finish.i3 = getelementptr inbounds i8, ptr %candidates, i64 8
  %2 = load ptr, ptr %_M_finish.i3, align 8
  %3 = load ptr, ptr %enums, align 8
  %sub.ptr.lhs.cast.i.i = ptrtoint ptr %0 to i64
  %sub.ptr.rhs.cast.i.i = ptrtoint ptr %3 to i64
  %sub.ptr.sub.i.i = sub i64 %sub.ptr.lhs.cast.i.i, %sub.ptr.rhs.cast.i.i
  %add.ptr.i.i = getelementptr inbounds i8, ptr %3, i64 %sub.ptr.sub.i.i
  tail call void @_ZNSt6vectorIN4cvc58internal12NodeTemplateILb1EEESaIS3_EE15_M_range_insertIN9__gnu_cxx17__normal_iteratorIPKS3_S5_EEEEvNS8_IPS3_S5_EET_SE_St20forward_iterator_tag(ptr noundef nonnull align 8 dereferenceable(24) %enums, ptr %add.ptr.i.i, ptr %1, ptr %2)
  ret void
}